; Function Attrs: mustprogress nofree norecurse nosync nounwind willreturn memory(argmem: write) uwtable
define void @_ZN8proxygen7ServiceC2Ev(ptr noundef nonnull align 8 dereferenceable(56) %this) unnamed_addr #0 align 2 {
entry:
  store ptr getelementptr inbounds ({ [15 x ptr] }, ptr @_ZTVN8proxygen7ServiceE, i64 0, i32 0, i64 2), ptr %this, align 8
  %workers_ = getelementptr inbounds i8, ptr %this, i64 8
  %_M_prev.i.i.i.i.i = getelementptr inbounds i8, ptr %this, i64 16
  store ptr %workers_, ptr %_M_prev.i.i.i.i.i, align 8
  store ptr %workers_, ptr %workers_, align 8
  %_M_size.i.i.i.i.i = getelementptr inbounds i8, ptr %this, i64 24
  tail call void @llvm.memset.p0.i64(ptr noundef nonnull align 8 dereferenceable(32) %_M_size.i.i.i.i.i, i8 0, i64 32, i1 false)
  ret void
}